; Function Attrs: mustprogress nounwind uwtable
define internal void @"_ZN7doctest6detail12ContextScopeIZL14runConformancePKcPFvP9lua_StateES7_S5_P18lua_CompileOptionsbPN4Luau7CodeGen18CompilationOptionsEE3$_0ED0Ev"(ptr noundef nonnull align 8 dereferenceable(24) %0) unnamed_addr #7 align 2 personality ptr @__gxx_personality_v0 {
  store ptr getelementptr inbounds inrange(-16, 24) (i8, ptr @"_ZTVN7doctest6detail12ContextScopeIZL14runConformancePKcPFvP9lua_StateES7_S5_P18lua_CompileOptionsbPN4Luau7CodeGen18CompilationOptionsEE3$_0EE", i64 16), ptr %0, align 8
  %2 = getelementptr inbounds i8, ptr %0, i64 8
  %3 = load i8, ptr %2, align 8
  %4 = trunc i8 %3 to i1
  br i1 %4, label %5, label %"_ZN7doctest6detail12ContextScopeIZL14runConformancePKcPFvP9lua_StateES7_S5_P18lua_CompileOptionsbPN4Luau7CodeGen18CompilationOptionsEE3$_0ED2Ev.exit"

5:                                                ; preds = %1
  invoke void @_ZN7doctest6detail16ContextScopeBase7destroyEv(ptr noundef nonnull align 8 dereferenceable(9) %0)
          to label %"_ZN7doctest6detail12ContextScopeIZL14runConformancePKcPFvP9lua_StateES7_S5_P18lua_CompileOptionsbPN4Luau7CodeGen18CompilationOptionsEE3$_0ED2Ev.exit" unwind label %6

6:                                                ; preds = %5
  %7 = landingpad { ptr, i32 }
          catch ptr null
  %8 = extractvalue { ptr, i32 } %7, 0
  tail call void @__clang_call_terminate(ptr %8) #36
  unreachable

"_ZN7doctest6detail12ContextScopeIZL14runConformancePKcPFvP9lua_StateES7_S5_P18lua_CompileOptionsbPN4Luau7CodeGen18CompilationOptionsEE3$_0ED2Ev.exit": ; preds = %1, %5
  tail call void @_ZN7doctest13IContextScopeD2Ev(ptr noundef nonnull align 8 dereferenceable(8) %0) #35
  tail call void @_ZdlPvm(ptr noundef nonnull %0, i64 noundef 24) #38
  ret void
}